; Function Attrs: mustprogress uwtable
define hidden void @_ZN3opt10opt_solver9set_logicERK6symbol(ptr noundef nonnull align 8 dereferenceable(1042) initializes((960, 968)) %0, ptr noundef nonnull readonly align 8 captures(none) dereferenceable(8) %1) local_unnamed_addr #4 align 2 {
  %3 = getelementptr inbounds nuw i8, ptr %0, i64 960
  %4 = load i64, ptr %1, align 8
  store i64 %4, ptr %3, align 8, !tbaa !250
  %5 = getelementptr inbounds nuw i8, ptr %0, i64 928
  %6 = inttoptr i64 %4 to ptr
  %7 = tail call noundef zeroext i1 @_ZN3smt6kernel9set_logicE6symbol(ptr noundef nonnull align 8 dereferenceable(8) %5, ptr %6)
  ret void
}